; Function Attrs: nounwind uwtable
define ptr @l_Lean_RBNode_fold___at___private_Lean_Meta_Tactic_Grind_Arith_Cutsat_Search_0__Lean_Meta_Grind_Arith_Cutsat_union___spec__1(ptr noundef %0, ptr noundef %1) local_unnamed_addr #1 {
  br label %3

3:                                                ; preds = %lean_dec.exit, %2
  %.016 = phi ptr [ %1, %2 ], [ %36, %lean_dec.exit ]
  %.0 = phi ptr [ %0, %2 ], [ %53, %lean_dec.exit ]
  %4 = ptrtoint ptr %.016 to i64
  %5 = and i64 %4, 1
  %.not.i19 = icmp eq i64 %5, 0
  br i1 %.not.i19, label %9, label %6

6:                                                ; preds = %3
  %7 = lshr i64 %4, 1
  %8 = trunc i64 %7 to i32
  br label %lean_obj_tag.exit

9:                                                ; preds = %3
  %10 = getelementptr i8, ptr %.016, i64 4
  %.val.i = load i32, ptr %10, align 4
  %11 = lshr i32 %.val.i, 24
  br label %lean_obj_tag.exit

lean_obj_tag.exit:                                ; preds = %6, %9
  %.0.i = phi i32 [ %8, %6 ], [ %11, %9 ]
  %12 = icmp eq i32 %.0.i, 0
  br i1 %12, label %13, label %14

13:                                               ; preds = %lean_obj_tag.exit
  ret ptr %.0

14:                                               ; preds = %lean_obj_tag.exit
  %15 = getelementptr inbounds nuw i8, ptr %.016, i64 8
  %16 = load ptr, ptr %15, align 8, !tbaa !11
  %17 = ptrtoint ptr %16 to i64
  %18 = and i64 %17, 1
  %.not = icmp eq i64 %18, 0
  br i1 %.not, label %19, label %lean_inc.exit18

19:                                               ; preds = %14
  %.val.i20 = load i32, ptr %16, align 4, !tbaa !6
  %20 = icmp sgt i32 %.val.i20, 0
  br i1 %20, label %21, label %23, !prof !5

21:                                               ; preds = %19
  %22 = add nuw i32 %.val.i20, 1
  store i32 %22, ptr %16, align 4, !tbaa !6
  br label %lean_inc.exit18

23:                                               ; preds = %19
  %.not.i21 = icmp eq i32 %.val.i20, 0
  br i1 %.not.i21, label %lean_inc.exit18, label %24

24:                                               ; preds = %23
  tail call void @lean_inc_ref_cold(ptr noundef nonnull %16) #6
  br label %lean_inc.exit18

lean_inc.exit18:                                  ; preds = %24, %23, %21, %14
  %25 = getelementptr inbounds nuw i8, ptr %.016, i64 16
  %26 = load ptr, ptr %25, align 8, !tbaa !11
  %27 = ptrtoint ptr %26 to i64
  %28 = and i64 %27, 1
  %.not28 = icmp eq i64 %28, 0
  br i1 %.not28, label %29, label %lean_inc.exit17

29:                                               ; preds = %lean_inc.exit18
  %.val.i22 = load i32, ptr %26, align 4, !tbaa !6
  %30 = icmp sgt i32 %.val.i22, 0
  br i1 %30, label %31, label %33, !prof !5

31:                                               ; preds = %29
  %32 = add nuw i32 %.val.i22, 1
  store i32 %32, ptr %26, align 4, !tbaa !6
  br label %lean_inc.exit17

33:                                               ; preds = %29
  %.not.i23 = icmp eq i32 %.val.i22, 0
  br i1 %.not.i23, label %lean_inc.exit17, label %34

34:                                               ; preds = %33
  tail call void @lean_inc_ref_cold(ptr noundef nonnull %26) #6
  br label %lean_inc.exit17

lean_inc.exit17:                                  ; preds = %34, %33, %31, %lean_inc.exit18
  %35 = getelementptr inbounds nuw i8, ptr %.016, i64 32
  %36 = load ptr, ptr %35, align 8, !tbaa !11
  %37 = ptrtoint ptr %36 to i64
  %38 = and i64 %37, 1
  %.not29 = icmp eq i64 %38, 0
  br i1 %.not29, label %39, label %lean_inc.exit

39:                                               ; preds = %lean_inc.exit17
  %.val.i25 = load i32, ptr %36, align 4, !tbaa !6
  %40 = icmp sgt i32 %.val.i25, 0
  br i1 %40, label %41, label %43, !prof !5

41:                                               ; preds = %39
  %42 = add nuw i32 %.val.i25, 1
  store i32 %42, ptr %36, align 4, !tbaa !6
  br label %lean_inc.exit

43:                                               ; preds = %39
  %.not.i26 = icmp eq i32 %.val.i25, 0
  br i1 %.not.i26, label %lean_inc.exit, label %44

44:                                               ; preds = %43
  tail call void @lean_inc_ref_cold(ptr noundef nonnull %36) #6
  br label %lean_inc.exit

lean_inc.exit:                                    ; preds = %44, %43, %41, %lean_inc.exit17
  br i1 %.not.i19, label %45, label %lean_dec.exit

45:                                               ; preds = %lean_inc.exit
  %46 = load i32, ptr %.016, align 4, !tbaa !6
  %47 = icmp sgt i32 %46, 1
  br i1 %47, label %48, label %50, !prof !5

48:                                               ; preds = %45
  %49 = add nsw i32 %46, -1
  store i32 %49, ptr %.016, align 4, !tbaa !6
  br label %lean_dec.exit

50:                                               ; preds = %45
  %.not.i = icmp eq i32 %46, 0
  br i1 %.not.i, label %lean_dec.exit, label %51

51:                                               ; preds = %50
  tail call void @lean_dec_ref_cold(ptr noundef nonnull %.016) #6
  br label %lean_dec.exit

lean_dec.exit:                                    ; preds = %51, %50, %48, %lean_inc.exit
  %52 = tail call ptr @l_Lean_RBNode_fold___at___private_Lean_Meta_Tactic_Grind_Arith_Cutsat_Search_0__Lean_Meta_Grind_Arith_Cutsat_union___spec__1(ptr noundef %.0, ptr noundef %16)
  %53 = tail call ptr @l_Lean_RBNode_insert___at_Lean_FVarIdSet_insert___spec__1(ptr noundef %52, ptr noundef %26, ptr noundef nonnull inttoptr (i64 1 to ptr)) #6
  br label %3
}